ccopy_reg
_reconstructor
p0
(cgoogle.oauth2.credentials
Credentials
p1
c__builtin__
object
p2
Ntp3
Rp4
(dp5
S'_token_uri'
p6
Vhttps://oauth2.googleapis.com/token
p7
sS'_scopes'
p8
(lp9
S'https://mail.google.com/'
p10
asS'_id_token'
p11
NsS'token'
p12
Vya29.GlvtBrPmaWtMVKQhd_Xu5T5Yh-TkOAJAm1kfZ7w88s7k9OBT5MHO5gYy3KngLByy-PMw1VpAAgovYva7DRwYPk1Fugvz3QxHTh0MmNhNarij-JR5nN1qx4EqkOC3
p13
sS'_refresh_token'
p14
V1/Bi43v5TN4igfoGX0iiRcvxxRI0J0w5lADFTPfTsPGFI
p15
sS'_client_secret'
p16
VbGedJeGKclWjLRrHOGlxf0qr
p17
sS'_client_id'
p18
V823790353706-fnfj4aph9cehi3ggj0jrlh8hgoeb9itp.apps.googleusercontent.com
p19
sS'expiry'
p20
cdatetime
datetime
p21
(S'\x07\xe3\x04\x10\x141 \x02\xa0\x1f'
p22
tp23
Rp24
sb.